; Function Attrs: mustprogress uwtable
define hidden void @_ZN19OpenColorIO_v2_5dev15Log2LinRenderer10updateDataERSt10shared_ptrIKNS_9LogOpDataEE(ptr noundef nonnull align 8 dereferenceable(136) initializes((8, 12)) %0, ptr noundef nonnull readonly align 8 captures(none) dereferenceable(16) %1) unnamed_addr #3 align 2 {
  %3 = load ptr, ptr %1, align 8, !tbaa !3
  %4 = tail call noundef double @_ZNK19OpenColorIO_v2_5dev9LogOpData7getBaseEv(ptr noundef nonnull align 8 dereferenceable(252) %3) #26
  %5 = fptrunc double %4 to float
  %6 = getelementptr inbounds nuw i8, ptr %0, i64 8
  store float %5, ptr %6, align 8, !tbaa !96
  %7 = load ptr, ptr %1, align 8, !tbaa !3
  %8 = getelementptr inbounds nuw i8, ptr %7, i64 168
  %9 = getelementptr inbounds nuw i8, ptr %0, i64 16
  %10 = tail call noundef nonnull align 8 dereferenceable(24) ptr @_ZNSt6vectorIdSaIdEEaSERKS1_(ptr noundef nonnull align 8 dereferenceable(24) %9, ptr noundef nonnull align 8 dereferenceable(24) %8)
  %11 = load ptr, ptr %1, align 8, !tbaa !3
  %12 = getelementptr inbounds nuw i8, ptr %11, i64 192
  %13 = getelementptr inbounds nuw i8, ptr %0, i64 40
  %14 = tail call noundef nonnull align 8 dereferenceable(24) ptr @_ZNSt6vectorIdSaIdEEaSERKS1_(ptr noundef nonnull align 8 dereferenceable(24) %13, ptr noundef nonnull align 8 dereferenceable(24) %12)
  %15 = load ptr, ptr %1, align 8, !tbaa !3
  %16 = getelementptr inbounds nuw i8, ptr %15, i64 216
  %17 = getelementptr inbounds nuw i8, ptr %0, i64 64
  %18 = tail call noundef nonnull align 8 dereferenceable(24) ptr @_ZNSt6vectorIdSaIdEEaSERKS1_(ptr noundef nonnull align 8 dereferenceable(24) %17, ptr noundef nonnull align 8 dereferenceable(24) %16)
  %19 = load float, ptr %6, align 8, !tbaa !96
  %20 = tail call float @log2f(float noundef %19) #26, !tbaa !112
  %21 = load ptr, ptr %9, align 8, !tbaa !108
  %22 = load double, ptr %21, align 8, !tbaa !119
  %23 = fptrunc double %22 to float
  %24 = fdiv float %20, %23
  %25 = getelementptr inbounds nuw i8, ptr %0, i64 88
  store float %24, ptr %25, align 8, !tbaa !111
  %26 = tail call float @log2f(float noundef %19) #26, !tbaa !112
  %27 = load ptr, ptr %13, align 8, !tbaa !108
  %28 = load double, ptr %27, align 8, !tbaa !119
  %29 = fptrunc double %28 to float
  %30 = fdiv float %26, %29
  %31 = getelementptr inbounds nuw i8, ptr %0, i64 92
  store float %30, ptr %31, align 4, !tbaa !111
  %32 = tail call float @log2f(float noundef %19) #26, !tbaa !112
  %33 = load ptr, ptr %17, align 8, !tbaa !108
  %34 = load double, ptr %33, align 8, !tbaa !119
  %35 = fptrunc double %34 to float
  %36 = fdiv float %32, %35
  %37 = getelementptr inbounds nuw i8, ptr %0, i64 96
  store float %36, ptr %37, align 8, !tbaa !111
  %38 = getelementptr inbounds nuw i8, ptr %21, i64 8
  %39 = load double, ptr %38, align 8, !tbaa !119
  %40 = fptrunc double %39 to float
  %41 = fneg float %40
  %42 = getelementptr inbounds nuw i8, ptr %0, i64 100
  store float %41, ptr %42, align 4, !tbaa !111
  %43 = getelementptr inbounds nuw i8, ptr %27, i64 8
  %44 = load double, ptr %43, align 8, !tbaa !119
  %45 = fptrunc double %44 to float
  %46 = fneg float %45
  %47 = getelementptr inbounds nuw i8, ptr %0, i64 104
  store float %46, ptr %47, align 8, !tbaa !111
  %48 = getelementptr inbounds nuw i8, ptr %33, i64 8
  %49 = load double, ptr %48, align 8, !tbaa !119
  %50 = fptrunc double %49 to float
  %51 = fneg float %50
  %52 = getelementptr inbounds nuw i8, ptr %0, i64 108
  store float %51, ptr %52, align 4, !tbaa !111
  %53 = getelementptr inbounds nuw i8, ptr %21, i64 24
  %54 = load double, ptr %53, align 8, !tbaa !119
  %55 = fptrunc double %54 to float
  %56 = fneg float %55
  %57 = getelementptr inbounds nuw i8, ptr %0, i64 112
  store float %56, ptr %57, align 8, !tbaa !111
  %58 = getelementptr inbounds nuw i8, ptr %27, i64 24
  %59 = load double, ptr %58, align 8, !tbaa !119
  %60 = fptrunc double %59 to float
  %61 = fneg float %60
  %62 = getelementptr inbounds nuw i8, ptr %0, i64 116
  store float %61, ptr %62, align 4, !tbaa !111
  %63 = getelementptr inbounds nuw i8, ptr %33, i64 24
  %64 = load double, ptr %63, align 8, !tbaa !119
  %65 = fptrunc double %64 to float
  %66 = fneg float %65
  %67 = getelementptr inbounds nuw i8, ptr %0, i64 120
  store float %66, ptr %67, align 8, !tbaa !111
  %68 = getelementptr inbounds nuw i8, ptr %21, i64 16
  %69 = load double, ptr %68, align 8, !tbaa !119
  %70 = fptrunc double %69 to float
  %71 = fdiv float 1.000000e+00, %70
  %72 = getelementptr inbounds nuw i8, ptr %0, i64 124
  store float %71, ptr %72, align 4, !tbaa !111
  %73 = getelementptr inbounds nuw i8, ptr %27, i64 16
  %74 = load double, ptr %73, align 8, !tbaa !119
  %75 = fptrunc double %74 to float
  %76 = fdiv float 1.000000e+00, %75
  %77 = getelementptr inbounds nuw i8, ptr %0, i64 128
  store float %76, ptr %77, align 8, !tbaa !111
  %78 = getelementptr inbounds nuw i8, ptr %33, i64 16
  %79 = load double, ptr %78, align 8, !tbaa !119
  %80 = fptrunc double %79 to float
  %81 = fdiv float 1.000000e+00, %80
  %82 = getelementptr inbounds nuw i8, ptr %0, i64 132
  store float %81, ptr %82, align 4, !tbaa !111
  ret void
}